target datalayout = "e-m:e-p270:32:32-p271:32:32-p272:64:64-i64:64-i128:128-f80:128-n8:16:32:64-S128"
target triple = "x86_64-pc-linux-gnu"

%struct.OptContext = type { ptr, ptr, %struct.TCGTempSet, %struct.RBRootLeftCached, %struct.anon, i32 }
%struct.TCGTempSet = type { [8 x i64] }
%struct.RBRootLeftCached = type { %struct.RBRoot, ptr }
%struct.RBRoot = type { ptr }
%struct.anon = type { ptr, ptr }
%struct.TCGTemp = type { i64, i64, ptr, i64, ptr, i64, ptr }
%struct.TempOptInfo = type { i8, ptr, ptr, %struct.anon.3, i64, i64, i64 }
%struct.anon.3 = type { ptr, ptr }

; Function Attrs: inlinehint nounwind sspstrong uwtable
define internal zeroext i1 @ti_is_const(ptr noundef %0) #3 {
  %2 = alloca ptr, align 8
  store ptr %0, ptr %2, align 8
  %3 = load ptr, ptr %2, align 8
  %4 = getelementptr inbounds nuw %struct.TempOptInfo, ptr %3, i32 0, i32 0
  %5 = load i8, ptr %4, align 8, !range !7, !noundef !8
  %6 = trunc i8 %5 to i1
  ret i1 %6
}

; Function Attrs: inlinehint nounwind sspstrong uwtable
define internal zeroext i1 @ts_is_copy(ptr noundef %0) #3 {
  %2 = alloca ptr, align 8
  store ptr %0, ptr %2, align 8
  %3 = load ptr, ptr %2, align 8
  %4 = call ptr @ts_info(ptr noundef %3)
  %5 = getelementptr inbounds nuw %struct.TempOptInfo, ptr %4, i32 0, i32 2
  %6 = load ptr, ptr %5, align 8
  %7 = load ptr, ptr %2, align 8
  %8 = icmp ne ptr %6, %7
  ret i1 %8
}

; Function Attrs: inlinehint nounwind sspstrong uwtable
define internal zeroext i1 @ts_is_const(ptr noundef %0) #3 {
  %2 = alloca ptr, align 8
  store ptr %0, ptr %2, align 8
  %3 = load ptr, ptr %2, align 8
  %4 = call ptr @ts_info(ptr noundef %3)
  %5 = call zeroext i1 @ti_is_const(ptr noundef %4)
  ret i1 %5
}

; Function Attrs: nounwind sspstrong uwtable
define internal zeroext i1 @ts_are_copies(ptr noundef %0, ptr noundef %1) #0 {
  %3 = alloca i1, align 1
  %4 = alloca ptr, align 8
  %5 = alloca ptr, align 8
  %6 = alloca ptr, align 8
  %7 = alloca i32, align 4
  store ptr %0, ptr %4, align 8
  store ptr %1, ptr %5, align 8
  call void @llvm.lifetime.start.p0(i64 8, ptr %6) #13
  store ptr null, ptr %6, align 8, !annotation !4
  %8 = load ptr, ptr %4, align 8
  %9 = load ptr, ptr %5, align 8
  %10 = icmp eq ptr %8, %9
  br i1 %10, label %11, label %12

11:                                               ; preds = %2
  store i1 true, ptr %3, align 1
  store i32 1, ptr %7, align 4
  br label %40

12:                                               ; preds = %2
  %13 = load ptr, ptr %4, align 8
  %14 = call zeroext i1 @ts_is_copy(ptr noundef %13)
  br i1 %14, label %15, label %18

15:                                               ; preds = %12
  %16 = load ptr, ptr %5, align 8
  %17 = call zeroext i1 @ts_is_copy(ptr noundef %16)
  br i1 %17, label %19, label %18

18:                                               ; preds = %15, %12
  store i1 false, ptr %3, align 1
  store i32 1, ptr %7, align 4
  br label %40

19:                                               ; preds = %15
  %20 = load ptr, ptr %4, align 8
  %21 = call ptr @ts_info(ptr noundef %20)
  %22 = getelementptr inbounds nuw %struct.TempOptInfo, ptr %21, i32 0, i32 2
  %23 = load ptr, ptr %22, align 8
  store ptr %23, ptr %6, align 8
  br label %24

24:                                               ; preds = %34, %19
  %25 = load ptr, ptr %6, align 8
  %26 = load ptr, ptr %4, align 8
  %27 = icmp ne ptr %25, %26
  br i1 %27, label %28, label %39

28:                                               ; preds = %24
  %29 = load ptr, ptr %6, align 8
  %30 = load ptr, ptr %5, align 8
  %31 = icmp eq ptr %29, %30
  br i1 %31, label %32, label %33

32:                                               ; preds = %28
  store i1 true, ptr %3, align 1
  store i32 1, ptr %7, align 4
  br label %40

33:                                               ; preds = %28
  br label %34

34:                                               ; preds = %33
  %35 = load ptr, ptr %6, align 8
  %36 = call ptr @ts_info(ptr noundef %35)
  %37 = getelementptr inbounds nuw %struct.TempOptInfo, ptr %36, i32 0, i32 2
  %38 = load ptr, ptr %37, align 8
  store ptr %38, ptr %6, align 8
  br label %24, !llvm.loop !20

39:                                               ; preds = %24
  store i1 false, ptr %3, align 1
  store i32 1, ptr %7, align 4
  br label %40

40:                                               ; preds = %39, %32, %18, %11
  call void @llvm.lifetime.end.p0(i64 8, ptr %6) #13
  %41 = load i1, ptr %3, align 1
  ret i1 %41
}

; Function Attrs: inlinehint nounwind sspstrong uwtable
define internal ptr @ts_info(ptr noundef %0) #3 {
  %2 = alloca ptr, align 8
  store ptr %0, ptr %2, align 8
  %3 = load ptr, ptr %2, align 8
  %4 = getelementptr inbounds nuw %struct.TCGTemp, ptr %3, i32 0, i32 6
  %5 = load ptr, ptr %4, align 8
  ret ptr %5
}

; Function Attrs: inlinehint nounwind sspstrong uwtable
define internal ptr @arg_temp(i64 noundef %0) #3 {
  %2 = alloca i64, align 8
  store i64 %0, ptr %2, align 8
  %3 = load i64, ptr %2, align 8
  %4 = inttoptr i64 %3 to ptr
  ret ptr %4
}

; Function Attrs: inlinehint nounwind sspstrong uwtable
define internal i32 @tcg_tst_ltge_cond(i32 noundef %0) #3 {
  %2 = alloca i32, align 4
  store i32 %0, ptr %2, align 4
  %3 = load i32, ptr %2, align 4
  %4 = call zeroext i1 @is_tst_cond(i32 noundef %3)
  br i1 %4, label %5, label %8

5:                                                ; preds = %1
  %6 = load i32, ptr %2, align 4
  %7 = xor i32 %6, 15
  br label %10

8:                                                ; preds = %1
  %9 = load i32, ptr %2, align 4
  br label %10

10:                                               ; preds = %8, %5
  %11 = phi i32 [ %7, %5 ], [ %9, %8 ]
  ret i32 %11
}

; Function Attrs: inlinehint nounwind sspstrong uwtable
define internal i32 @tcg_tst_eqne_cond(i32 noundef %0) #3 {
  %2 = alloca i32, align 4
  store i32 %0, ptr %2, align 4
  %3 = load i32, ptr %2, align 4
  %4 = call zeroext i1 @is_tst_cond(i32 noundef %3)
  br i1 %4, label %5, label %8

5:                                                ; preds = %1
  %6 = load i32, ptr %2, align 4
  %7 = sub i32 %6, 4
  br label %10

8:                                                ; preds = %1
  %9 = load i32, ptr %2, align 4
  br label %10

10:                                               ; preds = %8, %5
  %11 = phi i32 [ %7, %5 ], [ %9, %8 ]
  ret i32 %11
}

; Function Attrs: inlinehint nounwind sspstrong uwtable
define internal zeroext i1 @arg_is_const(i64 noundef %0) #3 {
  %2 = alloca i64, align 8
  store i64 %0, ptr %2, align 8
  %3 = load i64, ptr %2, align 8
  %4 = call ptr @arg_temp(i64 noundef %3)
  %5 = call zeroext i1 @ts_is_const(ptr noundef %4)
  ret i1 %5
}

; Function Attrs: nounwind sspstrong uwtable
define internal zeroext i1 @args_are_copies(i64 noundef %0, i64 noundef %1) #0 {
  %3 = alloca i64, align 8
  %4 = alloca i64, align 8
  store i64 %0, ptr %3, align 8
  store i64 %1, ptr %4, align 8
  %5 = load i64, ptr %3, align 8
  %6 = call ptr @arg_temp(i64 noundef %5)
  %7 = load i64, ptr %4, align 8
  %8 = call ptr @arg_temp(i64 noundef %7)
  %9 = call zeroext i1 @ts_are_copies(ptr noundef %6, ptr noundef %8)
  ret i1 %9
}

; Function Attrs: inlinehint nounwind sspstrong uwtable
define internal ptr @arg_info(i64 noundef %0) #3 {
  %2 = alloca i64, align 8
  store i64 %0, ptr %2, align 8
  %3 = load i64, ptr %2, align 8
  %4 = call ptr @arg_temp(i64 noundef %3)
  %5 = call ptr @ts_info(ptr noundef %4)
  ret ptr %5
}

; Function Attrs: inlinehint nounwind sspstrong uwtable
define internal zeroext i1 @is_tst_cond(i32 noundef %0) #3 {
  %2 = alloca i32, align 4
  store i32 %0, ptr %2, align 4
  %3 = load i32, ptr %2, align 4
  %4 = or i32 %3, 1
  %5 = icmp eq i32 %4, 13
  ret i1 %5
}

; Function Attrs: inlinehint nounwind sspstrong uwtable
define internal i32 @tcg_swap_cond(i32 noundef %0) #3 {
  %2 = alloca i32, align 4
  store i32 %0, ptr %2, align 4
  %3 = load i32, ptr %2, align 4
  %4 = load i32, ptr %2, align 4
  %5 = and i32 %4, 2
  %6 = shl i32 %5, 1
  %7 = xor i32 %3, %6
  ret i32 %7
}

; Function Attrs: nounwind sspstrong uwtable
define internal zeroext i1 @swap_commutative(i64 noundef %0, ptr noundef %1, ptr noundef %2) #0 {
  %4 = alloca i1, align 1
  %5 = alloca i64, align 8
  %6 = alloca ptr, align 8
  %7 = alloca ptr, align 8
  %8 = alloca i64, align 8
  %9 = alloca i64, align 8
  %10 = alloca i32, align 4
  %11 = alloca i32, align 4
  store i64 %0, ptr %5, align 8
  store ptr %1, ptr %6, align 8
  store ptr %2, ptr %7, align 8
  call void @llvm.lifetime.start.p0(i64 8, ptr %8) #13
  %12 = load ptr, ptr %6, align 8
  %13 = load i64, ptr %12, align 8
  store i64 %13, ptr %8, align 8
  call void @llvm.lifetime.start.p0(i64 8, ptr %9) #13
  %14 = load ptr, ptr %7, align 8
  %15 = load i64, ptr %14, align 8
  store i64 %15, ptr %9, align 8
  call void @llvm.lifetime.start.p0(i64 4, ptr %10) #13
  store i32 0, ptr %10, align 4
  %16 = load i64, ptr %8, align 8
  %17 = call zeroext i1 @arg_is_const(i64 noundef %16)
  %18 = zext i1 %17 to i32
  %19 = load i32, ptr %10, align 4
  %20 = add i32 %19, %18
  store i32 %20, ptr %10, align 4
  %21 = load i64, ptr %9, align 8
  %22 = call zeroext i1 @arg_is_const(i64 noundef %21)
  %23 = zext i1 %22 to i32
  %24 = load i32, ptr %10, align 4
  %25 = sub i32 %24, %23
  store i32 %25, ptr %10, align 4
  %26 = load i32, ptr %10, align 4
  %27 = icmp sgt i32 %26, 0
  br i1 %27, label %35, label %28

28:                                               ; preds = %3
  %29 = load i32, ptr %10, align 4
  %30 = icmp eq i32 %29, 0
  br i1 %30, label %31, label %40

31:                                               ; preds = %28
  %32 = load i64, ptr %5, align 8
  %33 = load i64, ptr %9, align 8
  %34 = icmp eq i64 %32, %33
  br i1 %34, label %35, label %40

35:                                               ; preds = %31, %3
  %36 = load i64, ptr %9, align 8
  %37 = load ptr, ptr %6, align 8
  store i64 %36, ptr %37, align 8
  %38 = load i64, ptr %8, align 8
  %39 = load ptr, ptr %7, align 8
  store i64 %38, ptr %39, align 8
  store i1 true, ptr %4, align 1
  store i32 1, ptr %11, align 4
  br label %41

40:                                               ; preds = %31, %28
  store i1 false, ptr %4, align 1
  store i32 1, ptr %11, align 4
  br label %41

41:                                               ; preds = %40, %35
  call void @llvm.lifetime.end.p0(i64 4, ptr %10) #13
  call void @llvm.lifetime.end.p0(i64 8, ptr %9) #13
  call void @llvm.lifetime.end.p0(i64 8, ptr %8) #13
  %42 = load i1, ptr %4, align 1
  ret i1 %42
}

; Function Attrs: nounwind sspstrong uwtable
define internal i32 @do_constant_folding_cond1(ptr noundef %0, ptr noundef %1, i64 noundef %2, ptr noundef %3, ptr noundef %4, ptr noundef %5) #0 {
  %7 = alloca i32, align 4
  %8 = alloca ptr, align 8
  %9 = alloca ptr, align 8
  %10 = alloca i64, align 8
  %11 = alloca ptr, align 8
  %12 = alloca ptr, align 8
  %13 = alloca ptr, align 8
  %14 = alloca i32, align 4
  %15 = alloca ptr, align 8
  %16 = alloca i8, align 1
  %17 = alloca i32, align 4
  %18 = alloca i32, align 4
  store ptr %0, ptr %8, align 8
  store ptr %1, ptr %9, align 8
  store i64 %2, ptr %10, align 8
  store ptr %3, ptr %11, align 8
  store ptr %4, ptr %12, align 8
  store ptr %5, ptr %13, align 8
  call void @llvm.lifetime.start.p0(i64 4, ptr %14) #13
  store i32 0, ptr %14, align 4, !annotation !4
  call void @llvm.lifetime.start.p0(i64 8, ptr %15) #13
  store ptr null, ptr %15, align 8, !annotation !4
  call void @llvm.lifetime.start.p0(i64 1, ptr %16) #13
  store i8 0, ptr %16, align 1, !annotation !4
  call void @llvm.lifetime.start.p0(i64 4, ptr %17) #13
  store i32 0, ptr %17, align 4, !annotation !4
  %19 = load i64, ptr %10, align 8
  %20 = load ptr, ptr %11, align 8
  %21 = load ptr, ptr %12, align 8
  %22 = call zeroext i1 @swap_commutative(i64 noundef %19, ptr noundef %20, ptr noundef %21)
  %23 = zext i1 %22 to i8
  store i8 %23, ptr %16, align 1
  %24 = load ptr, ptr %13, align 8
  %25 = load i64, ptr %24, align 8
  %26 = trunc i64 %25 to i32
  store i32 %26, ptr %14, align 4
  %27 = load i8, ptr %16, align 1, !range !7, !noundef !8
  %28 = trunc i8 %27 to i1
  br i1 %28, label %29, label %34

29:                                               ; preds = %6
  %30 = load i32, ptr %14, align 4
  %31 = call i32 @tcg_swap_cond(i32 noundef %30)
  store i32 %31, ptr %14, align 4
  %32 = zext i32 %31 to i64
  %33 = load ptr, ptr %13, align 8
  store i64 %32, ptr %33, align 8
  br label %34

34:                                               ; preds = %29, %6
  %35 = load ptr, ptr %8, align 8
  %36 = getelementptr inbounds nuw %struct.OptContext, ptr %35, i32 0, i32 5
  %37 = load i32, ptr %36, align 8
  %38 = load ptr, ptr %11, align 8
  %39 = load i64, ptr %38, align 8
  %40 = load ptr, ptr %12, align 8
  %41 = load i64, ptr %40, align 8
  %42 = load i32, ptr %14, align 4
  %43 = call i32 @do_constant_folding_cond(i32 noundef %37, i64 noundef %39, i64 noundef %41, i32 noundef %42)
  store i32 %43, ptr %17, align 4
  %44 = load i32, ptr %17, align 4
  %45 = icmp sge i32 %44, 0
  br i1 %45, label %46, label %48

46:                                               ; preds = %34
  %47 = load i32, ptr %17, align 4
  store i32 %47, ptr %7, align 4
  store i32 1, ptr %18, align 4
  br label %110

48:                                               ; preds = %34
  %49 = load i32, ptr %14, align 4
  %50 = call zeroext i1 @is_tst_cond(i32 noundef %49)
  br i1 %50, label %52, label %51

51:                                               ; preds = %48
  store i32 -1, ptr %7, align 4
  store i32 1, ptr %18, align 4
  br label %110

52:                                               ; preds = %48
  %53 = load ptr, ptr %11, align 8
  %54 = load i64, ptr %53, align 8
  %55 = call ptr @arg_info(i64 noundef %54)
  store ptr %55, ptr %15, align 8
  %56 = load ptr, ptr %11, align 8
  %57 = load i64, ptr %56, align 8
  %58 = load ptr, ptr %12, align 8
  %59 = load i64, ptr %58, align 8
  %60 = call zeroext i1 @args_are_copies(i64 noundef %57, i64 noundef %59)
  br i1 %60, label %77, label %61

61:                                               ; preds = %52
  %62 = load ptr, ptr %12, align 8
  %63 = load i64, ptr %62, align 8
  %64 = call zeroext i1 @arg_is_const(i64 noundef %63)
  br i1 %64, label %65, label %85

65:                                               ; preds = %61
  %66 = load ptr, ptr %15, align 8
  %67 = getelementptr inbounds nuw %struct.TempOptInfo, ptr %66, i32 0, i32 5
  %68 = load i64, ptr %67, align 8
  %69 = load ptr, ptr %12, align 8
  %70 = load i64, ptr %69, align 8
  %71 = call ptr @arg_info(i64 noundef %70)
  %72 = getelementptr inbounds nuw %struct.TempOptInfo, ptr %71, i32 0, i32 4
  %73 = load i64, ptr %72, align 8
  %74 = xor i64 %73, -1
  %75 = and i64 %68, %74
  %76 = icmp eq i64 %75, 0
  br i1 %76, label %77, label %85

77:                                               ; preds = %65, %52
  %78 = load ptr, ptr %8, align 8
  %79 = call i64 @arg_new_constant(ptr noundef %78, i64 noundef 0)
  %80 = load ptr, ptr %12, align 8
  store i64 %79, ptr %80, align 8
  %81 = load i32, ptr %14, align 4
  %82 = call i32 @tcg_tst_eqne_cond(i32 noundef %81)
  %83 = zext i32 %82 to i64
  %84 = load ptr, ptr %13, align 8
  store i64 %83, ptr %84, align 8
  store i32 -1, ptr %7, align 4
  store i32 1, ptr %18, align 4
  br label %110

85:                                               ; preds = %65, %61
  %86 = load ptr, ptr %12, align 8
  %87 = load i64, ptr %86, align 8
  %88 = call zeroext i1 @arg_is_const(i64 noundef %87)
  br i1 %88, label %89, label %109

89:                                               ; preds = %85
  %90 = load ptr, ptr %12, align 8
  %91 = load i64, ptr %90, align 8
  %92 = call ptr @arg_info(i64 noundef %91)
  %93 = getelementptr inbounds nuw %struct.TempOptInfo, ptr %92, i32 0, i32 4
  %94 = load i64, ptr %93, align 8
  %95 = load ptr, ptr %15, align 8
  %96 = getelementptr inbounds nuw %struct.TempOptInfo, ptr %95, i32 0, i32 6
  %97 = load i64, ptr %96, align 8
  %98 = xor i64 %97, -1
  %99 = and i64 %94, %98
  %100 = icmp eq i64 %99, 0
  br i1 %100, label %101, label %109

101:                                              ; preds = %89
  %102 = load ptr, ptr %8, align 8
  %103 = call i64 @arg_new_constant(ptr noundef %102, i64 noundef 0)
  %104 = load ptr, ptr %12, align 8
  store i64 %103, ptr %104, align 8
  %105 = load i32, ptr %14, align 4
  %106 = call i32 @tcg_tst_ltge_cond(i32 noundef %105)
  %107 = zext i32 %106 to i64
  %108 = load ptr, ptr %13, align 8
  store i64 %107, ptr %108, align 8
  store i32 -1, ptr %7, align 4
  store i32 1, ptr %18, align 4
  br label %110

109:                                              ; preds = %89, %85
  store i32 -1, ptr %7, align 4
  store i32 1, ptr %18, align 4
  br label %110

110:                                              ; preds = %109, %101, %77, %51, %46
  call void @llvm.lifetime.end.p0(i64 4, ptr %17) #13
  call void @llvm.lifetime.end.p0(i64 1, ptr %16) #13
  call void @llvm.lifetime.end.p0(i64 8, ptr %15) #13
  call void @llvm.lifetime.end.p0(i64 4, ptr %14) #13
  %111 = load i32, ptr %7, align 4
  ret i32 %111
}