; Function Attrs: nounwind sspstrong uwtable
define internal fastcc range(i32 -1, 2) i32 @do_constant_folding_cond1(ptr noundef nonnull captures(none) %0, i64 noundef %1, ptr noundef nonnull captures(none) %2, ptr noundef nonnull captures(none) %3, ptr noundef nonnull captures(none) %4) unnamed_addr #0 {
  %6 = load i64, ptr %2, align 8
  %7 = load i64, ptr %3, align 8
  %8 = inttoptr i64 %6 to ptr
  %9 = getelementptr i8, ptr %8, i64 48
  %.val.i.i = load ptr, ptr %9, align 8
  %.val.val.i.i = load i8, ptr %.val.i.i, align 8, !range !15, !noundef !16
  %10 = inttoptr i64 %7 to ptr
  %11 = getelementptr i8, ptr %10, i64 48
  %.val.i15.i = load ptr, ptr %11, align 8
  %.val.val.i16.i = load i8, ptr %.val.i15.i, align 8, !range !15, !noundef !16
  %12 = icmp samesign ugt i8 %.val.val.i.i, %.val.val.i16.i
  br i1 %12, label %18, label %13

13:                                               ; preds = %5
  %14 = icmp eq i8 %.val.val.i.i, %.val.val.i16.i
  %15 = icmp eq i64 %1, %7
  %or.cond.i = and i1 %15, %14
  br i1 %or.cond.i, label %18, label %swap_commutative.exit

swap_commutative.exit:                            ; preds = %13
  %16 = load i64, ptr %4, align 8
  %17 = trunc i64 %16 to i32
  br label %25

18:                                               ; preds = %5, %13
  store i64 %7, ptr %2, align 8
  store i64 %6, ptr %3, align 8
  %19 = load i64, ptr %4, align 8
  %20 = trunc i64 %19 to i32
  %21 = shl i32 %20, 1
  %22 = and i32 %21, 4
  %23 = xor i32 %22, %20
  %24 = zext i32 %23 to i64
  store i64 %24, ptr %4, align 8
  %.pre = load i64, ptr %2, align 8
  %.pre3 = load i64, ptr %3, align 8
  br label %25

25:                                               ; preds = %swap_commutative.exit, %18
  %26 = phi i64 [ %.pre3, %18 ], [ %7, %swap_commutative.exit ]
  %27 = phi i64 [ %.pre, %18 ], [ %6, %swap_commutative.exit ]
  %.031 = phi i32 [ %23, %18 ], [ %17, %swap_commutative.exit ]
  %28 = getelementptr inbounds nuw i8, ptr %0, i64 112
  %29 = load i32, ptr %28, align 8
  %30 = tail call fastcc i32 @do_constant_folding_cond(i32 noundef %29, i64 noundef %27, i64 noundef %26, i32 noundef %.031)
  %31 = icmp sgt i32 %30, -1
  br i1 %31, label %72, label %32

32:                                               ; preds = %25
  %33 = and i32 %.031, -2
  %34 = icmp eq i32 %33, 12
  br i1 %34, label %35, label %72

35:                                               ; preds = %32
  %36 = load i64, ptr %2, align 8
  %37 = inttoptr i64 %36 to ptr
  %38 = getelementptr i8, ptr %37, i64 48
  %.val.i = load ptr, ptr %38, align 8
  %39 = load i64, ptr %3, align 8
  %40 = inttoptr i64 %39 to ptr
  %41 = icmp eq i64 %36, %39
  br i1 %41, label %args_are_copies.exit, label %42

42:                                               ; preds = %35
  %43 = getelementptr inbounds nuw i8, ptr %.val.i, i64 16
  %44 = load ptr, ptr %43, align 8
  %.not15.i.i = icmp eq ptr %44, %37
  %.phi.trans.insert = getelementptr i8, ptr %40, i64 48
  %.val.i33.pre = load ptr, ptr %.phi.trans.insert, align 8
  br i1 %.not15.i.i, label %.loopexit, label %45

45:                                               ; preds = %42
  %46 = getelementptr inbounds nuw i8, ptr %.val.i33.pre, i64 16
  %47 = load ptr, ptr %46, align 8
  %.not16.i.i = icmp eq ptr %47, %40
  br i1 %.not16.i.i, label %.loopexit, label %.lr.ph.i.i

.lr.ph.i.i:                                       ; preds = %45, %49
  %.020.i.i = phi ptr [ %.0.i.i, %49 ], [ %44, %45 ]
  %48 = icmp eq ptr %.020.i.i, %40
  br i1 %48, label %args_are_copies.exit, label %49

49:                                               ; preds = %.lr.ph.i.i
  %50 = getelementptr i8, ptr %.020.i.i, i64 48
  %.0.val.i.i = load ptr, ptr %50, align 8
  %.0.in.i.i = getelementptr inbounds nuw i8, ptr %.0.val.i.i, i64 16
  %.0.i.i = load ptr, ptr %.0.in.i.i, align 8
  %.not.i.i = icmp eq ptr %.0.i.i, %37
  br i1 %.not.i.i, label %.loopexit, label %.lr.ph.i.i, !llvm.loop !18

.loopexit:                                        ; preds = %49, %42, %45
  %.val.val.i = load i8, ptr %.val.i33.pre, align 8, !range !15, !noundef !16
  %51 = trunc nuw i8 %.val.val.i to i1
  br i1 %51, label %52, label %72

52:                                               ; preds = %.loopexit
  %53 = getelementptr inbounds nuw i8, ptr %.val.i, i64 48
  %54 = load i64, ptr %53, align 8
  %55 = getelementptr inbounds nuw i8, ptr %.val.i33.pre, i64 40
  %56 = load i64, ptr %55, align 8
  %57 = xor i64 %56, -1
  %58 = and i64 %54, %57
  %59 = icmp eq i64 %58, 0
  br i1 %59, label %args_are_copies.exit, label %62

args_are_copies.exit:                             ; preds = %.lr.ph.i.i, %35, %52
  %60 = tail call fastcc i64 @arg_new_constant(ptr noundef %0, i64 noundef 0)
  store i64 %60, ptr %3, align 8
  %61 = add nsw i32 %.031, -4
  br label %.sink.split

62:                                               ; preds = %52
  %63 = getelementptr inbounds nuw i8, ptr %.val.i, i64 56
  %64 = load i64, ptr %63, align 8
  %65 = xor i64 %64, -1
  %66 = and i64 %56, %65
  %67 = icmp eq i64 %66, 0
  br i1 %67, label %68, label %72

68:                                               ; preds = %62
  %69 = tail call fastcc i64 @arg_new_constant(ptr noundef %0, i64 noundef 0)
  store i64 %69, ptr %3, align 8
  %70 = xor i32 %.031, 15
  br label %.sink.split

.sink.split:                                      ; preds = %args_are_copies.exit, %68
  %.sink5 = phi i32 [ %70, %68 ], [ %61, %args_are_copies.exit ]
  %71 = zext nneg i32 %.sink5 to i64
  store i64 %71, ptr %4, align 8
  br label %72

72:                                               ; preds = %.sink.split, %.loopexit, %62, %32, %25
  %.0 = phi i32 [ %30, %25 ], [ -1, %32 ], [ -1, %62 ], [ -1, %.loopexit ], [ -1, %.sink.split ]
  ret i32 %.0
}